; Function Attrs: nounwind uwtable
define internal range(i32 -1, 1) i32 @MatrixEmbeddedLSSolve(ptr noundef readonly captures(none) %0, ptr readnone captures(none) %1, ptr noundef readonly captures(none) %2, ptr noundef readonly captures(none) %3, double %4) #0 {
  %6 = alloca ptr, align 8
  %7 = alloca ptr, align 8
  %8 = alloca ptr, align 8
  %9 = alloca ptr, align 8
  %10 = alloca double, align 8
  %11 = alloca double, align 8
  %12 = alloca double, align 8
  %13 = alloca ptr, align 8
  call void @llvm.lifetime.start.p0(i64 8, ptr nonnull %6) #10
  call void @llvm.lifetime.start.p0(i64 8, ptr nonnull %7) #10
  call void @llvm.lifetime.start.p0(i64 8, ptr nonnull %8) #10
  call void @llvm.lifetime.start.p0(i64 8, ptr nonnull %9) #10
  call void @llvm.lifetime.start.p0(i64 8, ptr nonnull %10) #10
  call void @llvm.lifetime.start.p0(i64 8, ptr nonnull %11) #10
  call void @llvm.lifetime.start.p0(i64 8, ptr nonnull %12) #10
  call void @llvm.lifetime.start.p0(i64 8, ptr nonnull %13) #10
  %14 = load ptr, ptr %0, align 8, !tbaa !21
  %15 = call i32 @CVodeGetNonlinearSystemData(ptr noundef %14, ptr noundef nonnull %10, ptr noundef nonnull %7, ptr noundef nonnull %6, ptr noundef nonnull %8, ptr noundef nonnull %11, ptr noundef nonnull %12, ptr noundef nonnull %9, ptr noundef nonnull %13) #10
  %16 = icmp slt i32 %15, 0
  br i1 %16, label %check_retval.exit, label %19

check_retval.exit:                                ; preds = %5
  %17 = load ptr, ptr @stderr, align 8, !tbaa !8
  %18 = call i32 (ptr, ptr, ...) @fprintf(ptr noundef %17, ptr noundef nonnull @.str.36, ptr noundef nonnull @.str.34, i32 noundef %15) #11
  br label %33

19:                                               ; preds = %5
  %20 = load ptr, ptr %13, align 8, !tbaa !13
  %21 = load double, ptr %20, align 8, !tbaa !4
  %22 = load ptr, ptr %3, align 8, !tbaa !22
  %23 = getelementptr inbounds nuw i8, ptr %22, i64 16
  %24 = load ptr, ptr %23, align 8, !tbaa !25
  %25 = load double, ptr %24, align 8, !tbaa !4
  %26 = load double, ptr %11, align 8, !tbaa !4
  %27 = fneg double %26
  %28 = call double @llvm.fmuladd.f64(double %27, double %21, double 1.000000e+00)
  %29 = fdiv double %25, %28
  %30 = load ptr, ptr %2, align 8, !tbaa !22
  %31 = getelementptr inbounds nuw i8, ptr %30, i64 16
  %32 = load ptr, ptr %31, align 8, !tbaa !25
  store double %29, ptr %32, align 8, !tbaa !4
  br label %33

33:                                               ; preds = %check_retval.exit, %19
  %.0 = phi i32 [ 0, %19 ], [ -1, %check_retval.exit ]
  call void @llvm.lifetime.end.p0(i64 8, ptr nonnull %13) #10
  call void @llvm.lifetime.end.p0(i64 8, ptr nonnull %12) #10
  call void @llvm.lifetime.end.p0(i64 8, ptr nonnull %11) #10
  call void @llvm.lifetime.end.p0(i64 8, ptr nonnull %10) #10
  call void @llvm.lifetime.end.p0(i64 8, ptr nonnull %9) #10
  call void @llvm.lifetime.end.p0(i64 8, ptr nonnull %8) #10
  call void @llvm.lifetime.end.p0(i64 8, ptr nonnull %7) #10
  call void @llvm.lifetime.end.p0(i64 8, ptr nonnull %6) #10
  ret i32 %.0
}